target datalayout = "e-m:e-p270:32:32-p271:32:32-p272:64:64-i64:64-i128:128-f80:128-n8:16:32:64-S128"
target triple = "x86_64-pc-linux-gnu"

%struct.ps_prochandle = type { ptr, i32, i32, ptr, ptr, i32, ptr, ptr }
%struct.core_data = type { i32, i32, i32, i32, i64, i64, i64, ptr, ptr, ptr }
%struct.map_info = type { i32, i64, i64, i64, i32, ptr }

@.str.22 = private unnamed_addr constant [36 x i8] c"can't allocate memory for map_info\0A\00", align 1

; Function Attrs: nounwind uwtable
define internal ptr @allocate_init_map(i32 noundef %0, i64 noundef %1, i64 noundef %2, i64 noundef %3, i32 noundef %4) #0 {
  %6 = alloca ptr, align 8
  %7 = alloca i32, align 4
  %8 = alloca i64, align 8
  %9 = alloca i64, align 8
  %10 = alloca i64, align 8
  %11 = alloca i32, align 4
  %12 = alloca ptr, align 8
  store i32 %0, ptr %7, align 4
  store i64 %1, ptr %8, align 8
  store i64 %2, ptr %9, align 8
  store i64 %3, ptr %10, align 8
  store i32 %4, ptr %11, align 4
  %13 = call noalias ptr @calloc(i64 noundef 1, i64 noundef 48) #7
  store ptr %13, ptr %12, align 8
  %14 = icmp eq ptr %13, null
  br i1 %14, label %15, label %16

15:                                               ; preds = %5
  call void (ptr, ...) @print_error(ptr noundef @.str.22)
  store ptr null, ptr %6, align 8
  br label %33

16:                                               ; preds = %5
  %17 = load i32, ptr %7, align 4
  %18 = load ptr, ptr %12, align 8
  %19 = getelementptr inbounds %struct.map_info, ptr %18, i32 0, i32 0
  store i32 %17, ptr %19, align 8
  %20 = load i64, ptr %8, align 8
  %21 = load ptr, ptr %12, align 8
  %22 = getelementptr inbounds %struct.map_info, ptr %21, i32 0, i32 1
  store i64 %20, ptr %22, align 8
  %23 = load i64, ptr %9, align 8
  %24 = load ptr, ptr %12, align 8
  %25 = getelementptr inbounds %struct.map_info, ptr %24, i32 0, i32 2
  store i64 %23, ptr %25, align 8
  %26 = load i64, ptr %10, align 8
  %27 = load ptr, ptr %12, align 8
  %28 = getelementptr inbounds %struct.map_info, ptr %27, i32 0, i32 3
  store i64 %26, ptr %28, align 8
  %29 = load i32, ptr %11, align 4
  %30 = load ptr, ptr %12, align 8
  %31 = getelementptr inbounds %struct.map_info, ptr %30, i32 0, i32 4
  store i32 %29, ptr %31, align 8
  %32 = load ptr, ptr %12, align 8
  store ptr %32, ptr %6, align 8
  br label %33

33:                                               ; preds = %16, %15
  %34 = load ptr, ptr %6, align 8
  ret ptr %34
}

; Function Attrs: nounwind uwtable
define hidden ptr @add_map_info(ptr noundef %0, i32 noundef %1, i64 noundef %2, i64 noundef %3, i64 noundef %4, i32 noundef %5) #0 {
  %7 = alloca ptr, align 8
  %8 = alloca ptr, align 8
  %9 = alloca i32, align 4
  %10 = alloca i64, align 8
  %11 = alloca i64, align 8
  %12 = alloca i64, align 8
  %13 = alloca i32, align 4
  %14 = alloca ptr, align 8
  store ptr %0, ptr %8, align 8
  store i32 %1, ptr %9, align 4
  store i64 %2, ptr %10, align 8
  store i64 %3, ptr %11, align 8
  store i64 %4, ptr %12, align 8
  store i32 %5, ptr %13, align 4
  %15 = load i32, ptr %9, align 4
  %16 = load i64, ptr %10, align 8
  %17 = load i64, ptr %11, align 8
  %18 = load i64, ptr %12, align 8
  %19 = load i32, ptr %13, align 4
  %20 = call ptr @allocate_init_map(i32 noundef %15, i64 noundef %16, i64 noundef %17, i64 noundef %18, i32 noundef %19)
  store ptr %20, ptr %14, align 8
  %21 = icmp eq ptr %20, null
  br i1 %21, label %22, label %23

22:                                               ; preds = %6
  store ptr null, ptr %7, align 8
  br label %43

23:                                               ; preds = %6
  %24 = load ptr, ptr %8, align 8
  %25 = getelementptr inbounds %struct.ps_prochandle, ptr %24, i32 0, i32 7
  %26 = load ptr, ptr %25, align 8
  %27 = getelementptr inbounds %struct.core_data, ptr %26, i32 0, i32 7
  %28 = load ptr, ptr %27, align 8
  %29 = load ptr, ptr %14, align 8
  %30 = getelementptr inbounds %struct.map_info, ptr %29, i32 0, i32 5
  store ptr %28, ptr %30, align 8
  %31 = load ptr, ptr %14, align 8
  %32 = load ptr, ptr %8, align 8
  %33 = getelementptr inbounds %struct.ps_prochandle, ptr %32, i32 0, i32 7
  %34 = load ptr, ptr %33, align 8
  %35 = getelementptr inbounds %struct.core_data, ptr %34, i32 0, i32 7
  store ptr %31, ptr %35, align 8
  %36 = load ptr, ptr %8, align 8
  %37 = getelementptr inbounds %struct.ps_prochandle, ptr %36, i32 0, i32 7
  %38 = load ptr, ptr %37, align 8
  %39 = getelementptr inbounds %struct.core_data, ptr %38, i32 0, i32 6
  %40 = load i64, ptr %39, align 8
  %41 = add i64 %40, 1
  store i64 %41, ptr %39, align 8
  %42 = load ptr, ptr %14, align 8
  store ptr %42, ptr %7, align 8
  br label %43

43:                                               ; preds = %23, %22
  %44 = load ptr, ptr %7, align 8
  ret ptr %44
}