; Function Attrs: nounwind uwtable
define hidden noundef ptr @add_map_info(ptr nocapture noundef readonly %0, i32 noundef %1, i64 noundef %2, i64 noundef %3, i64 noundef %4, i32 noundef %5) local_unnamed_addr #0 {
  %7 = tail call noalias dereferenceable_or_null(48) ptr @calloc(i64 noundef 1, i64 noundef 48) #9
  %8 = icmp eq ptr %7, null
  br i1 %8, label %allocate_init_map.exit.thread, label %9

allocate_init_map.exit.thread:                    ; preds = %6
  tail call void (ptr, ...) @print_error(ptr noundef nonnull @.str.22) #8
  br label %23

9:                                                ; preds = %6
  store i32 %1, ptr %7, align 8
  %10 = getelementptr inbounds i8, ptr %7, i64 8
  store i64 %2, ptr %10, align 8
  %11 = getelementptr inbounds i8, ptr %7, i64 16
  store i64 %3, ptr %11, align 8
  %12 = getelementptr inbounds i8, ptr %7, i64 24
  store i64 %4, ptr %12, align 8
  %13 = getelementptr inbounds i8, ptr %7, i64 32
  store i32 %5, ptr %13, align 8
  %14 = getelementptr inbounds i8, ptr %0, i64 48
  %15 = load ptr, ptr %14, align 8
  %16 = getelementptr inbounds i8, ptr %15, i64 40
  %17 = load ptr, ptr %16, align 8
  %18 = getelementptr inbounds i8, ptr %7, i64 40
  store ptr %17, ptr %18, align 8
  store ptr %7, ptr %16, align 8
  %19 = load ptr, ptr %14, align 8
  %20 = getelementptr inbounds i8, ptr %19, i64 32
  %21 = load i64, ptr %20, align 8
  %22 = add i64 %21, 1
  store i64 %22, ptr %20, align 8
  br label %23

23:                                               ; preds = %allocate_init_map.exit.thread, %9
  ret ptr %7
}